target datalayout = "e-m:e-p270:32:32-p271:32:32-p272:64:64-i64:64-i128:128-f80:128-n8:16:32:64-S128"
target triple = "x86_64-pc-linux-gnu"

%"class.std::__cxx11::basic_string" = type { %"struct.std::__cxx11::basic_string<char>::_Alloc_hider", i64, %union.anon }
%"struct.std::__cxx11::basic_string<char>::_Alloc_hider" = type { ptr }
%union.anon = type { i64, [8 x i8] }
%"struct.std::pair.22" = type { %"class.pxrInternal_v0_24__pxrReserved__::SdfPath", %"class.std::__cxx11::basic_string" }
%"class.pxrInternal_v0_24__pxrReserved__::SdfPath" = type { %"struct.pxrInternal_v0_24__pxrReserved__::Sdf_PathNodeHandleImpl", %"struct.pxrInternal_v0_24__pxrReserved__::Sdf_PathNodeHandleImpl.24" }
%"struct.pxrInternal_v0_24__pxrReserved__::Sdf_PathNodeHandleImpl" = type { %"struct.pxrInternal_v0_24__pxrReserved__::Sdf_Pool<pxrInternal_v0_24__pxrReserved__::Sdf_PathPrimTag, 24, 8>::Handle" }
%"struct.pxrInternal_v0_24__pxrReserved__::Sdf_Pool<pxrInternal_v0_24__pxrReserved__::Sdf_PathPrimTag, 24, 8>::Handle" = type { i32 }
%"struct.pxrInternal_v0_24__pxrReserved__::Sdf_PathNodeHandleImpl.24" = type { %"struct.pxrInternal_v0_24__pxrReserved__::Sdf_Pool<pxrInternal_v0_24__pxrReserved__::Sdf_PathPropTag, 24, 8>::Handle" }
%"struct.pxrInternal_v0_24__pxrReserved__::Sdf_Pool<pxrInternal_v0_24__pxrReserved__::Sdf_PathPropTag, 24, 8>::Handle" = type { i32 }
%"struct.pxrInternal_v0_24__pxrReserved__::SdfPathTable<std::__cxx11::basic_string<char>>::_Entry" = type { %"struct.std::pair.22", ptr, ptr, %"class.pxrInternal_v0_24__pxrReserved__::TfPointerAndBits" }
%"class.pxrInternal_v0_24__pxrReserved__::TfPointerAndBits" = type { ptr }
%class.anon.71 = type { ptr }
%"class.std::reference_wrapper" = type { ptr }
%"class.std::reference_wrapper.72" = type { ptr }

@.str.103 = private unnamed_addr constant [6 x i8] c"found\00", align 1
@.str.118 = private unnamed_addr constant [3 x i8] c"a2\00", align 1

; Function Attrs: mustprogress nounwind uwtable
define linkonce_odr dso_local noundef ptr @_ZNSt17reference_wrapperINSt7__cxx1112basic_stringIcSt11char_traitsIcESaIcEEEE6_S_funERS5_(ptr noundef nonnull align 8 dereferenceable(32) %0) #5 comdat align 2 {
  %2 = alloca ptr, align 8
  store ptr %0, ptr %2, align 8
  %3 = load ptr, ptr %2, align 8
  ret ptr %3
}

; Function Attrs: mustprogress nounwind uwtable
define linkonce_odr dso_local noundef ptr @_ZNSt17reference_wrapperIKN32pxrInternal_v0_24__pxrReserved__7SdfPathEE6_S_funERS2_(ptr noundef nonnull align 4 dereferenceable(8) %0) #5 comdat align 2 {
  %2 = alloca ptr, align 8
  store ptr %0, ptr %2, align 8
  %3 = load ptr, ptr %2, align 8
  ret ptr %3
}

; Function Attrs: mustprogress nounwind uwtable
define linkonce_odr dso_local noundef zeroext i1 @_ZSteqIcSt11char_traitsIcESaIcEEbRKNSt7__cxx1112basic_stringIT_T0_T1_EEPKS5_(ptr noundef nonnull align 8 dereferenceable(32) %0, ptr noundef %1) #5 comdat {
  %3 = alloca ptr, align 8
  %4 = alloca ptr, align 8
  store ptr %0, ptr %3, align 8
  store ptr %1, ptr %4, align 8
  %5 = load ptr, ptr %3, align 8
  %6 = load ptr, ptr %4, align 8
  %7 = call noundef i32 @_ZNKSt7__cxx1112basic_stringIcSt11char_traitsIcESaIcEE7compareEPKc(ptr noundef nonnull align 8 dereferenceable(32) %5, ptr noundef %6) #14
  %8 = icmp eq i32 %7, 0
  ret i1 %8
}

; Function Attrs: mustprogress nounwind uwtable
define linkonce_odr dso_local noundef nonnull align 8 dereferenceable(32) ptr @_ZNKSt17reference_wrapperINSt7__cxx1112basic_stringIcSt11char_traitsIcESaIcEEEE3getEv(ptr noundef nonnull align 8 dereferenceable(8) %0) #5 comdat align 2 {
  %2 = alloca ptr, align 8
  store ptr %0, ptr %2, align 8
  %3 = load ptr, ptr %2, align 8
  %4 = getelementptr inbounds nuw %"class.std::reference_wrapper.72", ptr %3, i32 0, i32 0
  %5 = load ptr, ptr %4, align 8
  ret ptr %5
}

; Function Attrs: mustprogress nounwind uwtable
define linkonce_odr dso_local void @_ZNSt17reference_wrapperINSt7__cxx1112basic_stringIcSt11char_traitsIcESaIcEEEEC2IRS5_vPS5_EEOT_(ptr noundef nonnull align 8 dereferenceable(8) %0, ptr noundef nonnull align 8 dereferenceable(32) %1) unnamed_addr #5 comdat align 2 {
  %3 = alloca ptr, align 8
  %4 = alloca ptr, align 8
  store ptr %0, ptr %3, align 8
  store ptr %1, ptr %4, align 8
  %5 = load ptr, ptr %3, align 8
  %6 = getelementptr inbounds nuw %"class.std::reference_wrapper.72", ptr %5, i32 0, i32 0
  %7 = load ptr, ptr %4, align 8
  %8 = call noundef ptr @_ZNSt17reference_wrapperINSt7__cxx1112basic_stringIcSt11char_traitsIcESaIcEEEE6_S_funERS5_(ptr noundef nonnull align 8 dereferenceable(32) %7) #14
  store ptr %8, ptr %6, align 8
  ret void
}

; Function Attrs: mustprogress nounwind uwtable
define linkonce_odr dso_local noundef nonnull align 4 dereferenceable(8) ptr @_ZNKSt17reference_wrapperIKN32pxrInternal_v0_24__pxrReserved__7SdfPathEE3getEv(ptr noundef nonnull align 8 dereferenceable(8) %0) #5 comdat align 2 {
  %2 = alloca ptr, align 8
  store ptr %0, ptr %2, align 8
  %3 = load ptr, ptr %2, align 8
  %4 = getelementptr inbounds nuw %"class.std::reference_wrapper", ptr %3, i32 0, i32 0
  %5 = load ptr, ptr %4, align 8
  ret ptr %5
}

; Function Attrs: mustprogress nounwind uwtable
define linkonce_odr dso_local void @_ZNSt17reference_wrapperIKN32pxrInternal_v0_24__pxrReserved__7SdfPathEEC2IRS2_vPS2_EEOT_(ptr noundef nonnull align 8 dereferenceable(8) %0, ptr noundef nonnull align 4 dereferenceable(8) %1) unnamed_addr #5 comdat align 2 {
  %3 = alloca ptr, align 8
  %4 = alloca ptr, align 8
  store ptr %0, ptr %3, align 8
  store ptr %1, ptr %4, align 8
  %5 = load ptr, ptr %3, align 8
  %6 = getelementptr inbounds nuw %"class.std::reference_wrapper", ptr %5, i32 0, i32 0
  %7 = load ptr, ptr %4, align 8
  %8 = call noundef ptr @_ZNSt17reference_wrapperIKN32pxrInternal_v0_24__pxrReserved__7SdfPathEE6_S_funERS2_(ptr noundef nonnull align 4 dereferenceable(8) %7) #14
  store ptr %8, ptr %6, align 8
  ret void
}

; Function Attrs: mustprogress uwtable
define internal void @"_ZZL10DoUnitTestvENK3$_1clERKN32pxrInternal_v0_24__pxrReserved__7SdfPathERNSt7__cxx1112basic_stringIcSt11char_traitsIcESaIcEEE"(ptr noundef nonnull align 1 dereferenceable(1) %0, ptr noundef nonnull align 4 dereferenceable(8) %1, ptr noundef nonnull align 8 dereferenceable(32) %2) #3 align 2 {
  %4 = alloca ptr, align 8
  %5 = alloca ptr, align 8
  %6 = alloca ptr, align 8
  store ptr %0, ptr %4, align 8
  store ptr %1, ptr %5, align 8
  store ptr %2, ptr %6, align 8
  %7 = load ptr, ptr %5, align 8
  %8 = call noundef nonnull align 8 dereferenceable(32) ptr @_ZNK32pxrInternal_v0_24__pxrReserved__7SdfPath7GetNameB5cxx11Ev(ptr noundef nonnull align 4 dereferenceable(8) %7)
  %9 = call noundef zeroext i1 @_ZSteqIcSt11char_traitsIcESaIcEEbRKNSt7__cxx1112basic_stringIT_T0_T1_EEPKS5_(ptr noundef nonnull align 8 dereferenceable(32) %8, ptr noundef @.str.118)
  br i1 %9, label %10, label %13

10:                                               ; preds = %3
  %11 = load ptr, ptr %6, align 8
  %12 = call noundef nonnull align 8 dereferenceable(32) ptr @_ZNSt7__cxx1112basic_stringIcSt11char_traitsIcESaIcEEaSEPKc(ptr noundef nonnull align 8 dereferenceable(32) %11, ptr noundef @.str.103)
  br label %13

13:                                               ; preds = %10, %3
  ret void
}

; Function Attrs: mustprogress nounwind uwtable
define linkonce_odr dso_local noundef nonnull align 8 dereferenceable(32) ptr @_ZNKSt17reference_wrapperINSt7__cxx1112basic_stringIcSt11char_traitsIcESaIcEEEEcvRS5_Ev(ptr noundef nonnull align 8 dereferenceable(8) %0) #5 comdat align 2 {
  %2 = alloca ptr, align 8
  store ptr %0, ptr %2, align 8
  %3 = load ptr, ptr %2, align 8
  %4 = call noundef nonnull align 8 dereferenceable(32) ptr @_ZNKSt17reference_wrapperINSt7__cxx1112basic_stringIcSt11char_traitsIcESaIcEEEE3getEv(ptr noundef nonnull align 8 dereferenceable(8) %3) #14
  ret ptr %4
}

; Function Attrs: mustprogress nounwind uwtable
define linkonce_odr dso_local ptr @_ZSt3refINSt7__cxx1112basic_stringIcSt11char_traitsIcESaIcEEEESt17reference_wrapperIT_ERS7_(ptr noundef nonnull align 8 dereferenceable(32) %0) #5 comdat {
  %2 = alloca %"class.std::reference_wrapper.72", align 8
  %3 = alloca ptr, align 8
  store ptr %0, ptr %3, align 8
  %4 = load ptr, ptr %3, align 8
  call void @_ZNSt17reference_wrapperINSt7__cxx1112basic_stringIcSt11char_traitsIcESaIcEEEEC2IRS5_vPS5_EEOT_(ptr noundef nonnull align 8 dereferenceable(8) %2, ptr noundef nonnull align 8 dereferenceable(32) %4) #14
  %5 = getelementptr inbounds nuw %"class.std::reference_wrapper.72", ptr %2, i32 0, i32 0
  %6 = load ptr, ptr %5, align 8
  ret ptr %6
}

; Function Attrs: mustprogress nounwind uwtable
define linkonce_odr dso_local noundef nonnull align 4 dereferenceable(8) ptr @_ZNKSt17reference_wrapperIKN32pxrInternal_v0_24__pxrReserved__7SdfPathEEcvRS2_Ev(ptr noundef nonnull align 8 dereferenceable(8) %0) #5 comdat align 2 {
  %2 = alloca ptr, align 8
  store ptr %0, ptr %2, align 8
  %3 = load ptr, ptr %2, align 8
  %4 = call noundef nonnull align 4 dereferenceable(8) ptr @_ZNKSt17reference_wrapperIKN32pxrInternal_v0_24__pxrReserved__7SdfPathEE3getEv(ptr noundef nonnull align 8 dereferenceable(8) %3) #14
  ret ptr %4
}

; Function Attrs: mustprogress nounwind uwtable
define linkonce_odr dso_local ptr @_ZSt4crefIN32pxrInternal_v0_24__pxrReserved__7SdfPathEESt17reference_wrapperIKT_ERS4_(ptr noundef nonnull align 4 dereferenceable(8) %0) #5 comdat {
  %2 = alloca %"class.std::reference_wrapper", align 8
  %3 = alloca ptr, align 8
  store ptr %0, ptr %3, align 8
  %4 = load ptr, ptr %3, align 8
  call void @_ZNSt17reference_wrapperIKN32pxrInternal_v0_24__pxrReserved__7SdfPathEEC2IRS2_vPS2_EEOT_(ptr noundef nonnull align 8 dereferenceable(8) %2, ptr noundef nonnull align 4 dereferenceable(8) %4) #14
  %5 = getelementptr inbounds nuw %"class.std::reference_wrapper", ptr %2, i32 0, i32 0
  %6 = load ptr, ptr %5, align 8
  ret ptr %6
}

; Function Attrs: mustprogress uwtable
define internal void @"_ZZN32pxrInternal_v0_24__pxrReserved__12SdfPathTableINSt7__cxx1112basic_stringIcSt11char_traitsIcESaIcEEEE15ParallelForEachIZL10DoUnitTestvE3$_1EEvRKT_ENKUlRPvE_clESE_"(ptr noundef nonnull align 8 dereferenceable(8) %0, ptr noundef nonnull align 8 dereferenceable(8) %1) #3 align 2 {
  %3 = alloca ptr, align 8
  %4 = alloca ptr, align 8
  %5 = alloca ptr, align 8
  %6 = alloca %"class.std::reference_wrapper", align 8
  %7 = alloca %"class.std::reference_wrapper.72", align 8
  store ptr %0, ptr %3, align 8
  store ptr %1, ptr %4, align 8
  %8 = load ptr, ptr %3, align 8
  %9 = load ptr, ptr %4, align 8
  %10 = load ptr, ptr %9, align 8
  store ptr %10, ptr %5, align 8
  br label %11

11:                                               ; preds = %14, %2
  %12 = load ptr, ptr %5, align 8
  %13 = icmp ne ptr %12, null
  br i1 %13, label %14, label %32

14:                                               ; preds = %11
  %15 = getelementptr inbounds nuw %class.anon.71, ptr %8, i32 0, i32 0
  %16 = load ptr, ptr %15, align 8
  %17 = load ptr, ptr %5, align 8
  %18 = getelementptr inbounds nuw %"struct.pxrInternal_v0_24__pxrReserved__::SdfPathTable<std::__cxx11::basic_string<char>>::_Entry", ptr %17, i32 0, i32 0
  %19 = getelementptr inbounds nuw %"struct.std::pair.22", ptr %18, i32 0, i32 0
  %20 = call ptr @_ZSt4crefIN32pxrInternal_v0_24__pxrReserved__7SdfPathEESt17reference_wrapperIKT_ERS4_(ptr noundef nonnull align 4 dereferenceable(8) %19) #14
  %21 = getelementptr inbounds nuw %"class.std::reference_wrapper", ptr %6, i32 0, i32 0
  store ptr %20, ptr %21, align 8
  %22 = call noundef nonnull align 4 dereferenceable(8) ptr @_ZNKSt17reference_wrapperIKN32pxrInternal_v0_24__pxrReserved__7SdfPathEEcvRS2_Ev(ptr noundef nonnull align 8 dereferenceable(8) %6) #14
  %23 = load ptr, ptr %5, align 8
  %24 = getelementptr inbounds nuw %"struct.pxrInternal_v0_24__pxrReserved__::SdfPathTable<std::__cxx11::basic_string<char>>::_Entry", ptr %23, i32 0, i32 0
  %25 = getelementptr inbounds nuw %"struct.std::pair.22", ptr %24, i32 0, i32 1
  %26 = call ptr @_ZSt3refINSt7__cxx1112basic_stringIcSt11char_traitsIcESaIcEEEESt17reference_wrapperIT_ERS7_(ptr noundef nonnull align 8 dereferenceable(32) %25) #14
  %27 = getelementptr inbounds nuw %"class.std::reference_wrapper.72", ptr %7, i32 0, i32 0
  store ptr %26, ptr %27, align 8
  %28 = call noundef nonnull align 8 dereferenceable(32) ptr @_ZNKSt17reference_wrapperINSt7__cxx1112basic_stringIcSt11char_traitsIcESaIcEEEEcvRS5_Ev(ptr noundef nonnull align 8 dereferenceable(8) %7) #14
  call void @"_ZZL10DoUnitTestvENK3$_1clERKN32pxrInternal_v0_24__pxrReserved__7SdfPathERNSt7__cxx1112basic_stringIcSt11char_traitsIcESaIcEEE"(ptr noundef nonnull align 1 dereferenceable(1) %16, ptr noundef nonnull align 4 dereferenceable(8) %22, ptr noundef nonnull align 8 dereferenceable(32) %28)
  %29 = load ptr, ptr %5, align 8
  %30 = getelementptr inbounds nuw %"struct.pxrInternal_v0_24__pxrReserved__::SdfPathTable<std::__cxx11::basic_string<char>>::_Entry", ptr %29, i32 0, i32 1
  %31 = load ptr, ptr %30, align 8
  store ptr %31, ptr %5, align 8
  br label %11, !llvm.loop !37

32:                                               ; preds = %11
  ret void
}

; Function Attrs: mustprogress uwtable
define internal void @"_ZN32pxrInternal_v0_24__pxrReserved__13TfFunctionRefIFvRPvEE9_InvokeFnIZNS_12SdfPathTableINSt7__cxx1112basic_stringIcSt11char_traitsIcESaIcEEEE15ParallelForEachIZL10DoUnitTestvE3$_1EEvRKT_EUlS2_E_EEvPKvS2_"(ptr noundef %0, ptr noundef nonnull align 8 dereferenceable(8) %1) #3 align 2 {
  %3 = alloca ptr, align 8
  %4 = alloca ptr, align 8
  store ptr %0, ptr %3, align 8
  store ptr %1, ptr %4, align 8
  %5 = load ptr, ptr %3, align 8
  %6 = load ptr, ptr %4, align 8
  call void @"_ZZN32pxrInternal_v0_24__pxrReserved__12SdfPathTableINSt7__cxx1112basic_stringIcSt11char_traitsIcESaIcEEEE15ParallelForEachIZL10DoUnitTestvE3$_1EEvRKT_ENKUlRPvE_clESE_"(ptr noundef nonnull align 8 dereferenceable(8) %5, ptr noundef nonnull align 8 dereferenceable(8) %6)
  ret void
}