; Function Attrs: mustprogress uwtable
define internal void @"_ZN32pxrInternal_v0_24__pxrReserved__13TfFunctionRefIFvRPvEE9_InvokeFnIZNS_12SdfPathTableINSt7__cxx1112basic_stringIcSt11char_traitsIcESaIcEEEE15ParallelForEachIZL10DoUnitTestvE3$_1EEvRKT_EUlS2_E_EEvPKvS2_"(ptr nocapture readnone %0, ptr nocapture noundef nonnull readonly align 8 dereferenceable(8) %1) #4 align 2 {
  %.02.i = load ptr, ptr %1, align 8
  %.not3.i = icmp eq ptr %.02.i, null
  br i1 %.not3.i, label %"_ZZN32pxrInternal_v0_24__pxrReserved__12SdfPathTableINSt7__cxx1112basic_stringIcSt11char_traitsIcESaIcEEEE15ParallelForEachIZL10DoUnitTestvE3$_1EEvRKT_ENKUlRPvE_clESE_.exit", label %.lr.ph.i

.lr.ph.i:                                         ; preds = %2, %"_ZZL10DoUnitTestvENK3$_1clERKN32pxrInternal_v0_24__pxrReserved__7SdfPathERNSt7__cxx1112basic_stringIcSt11char_traitsIcESaIcEEE.exit.i"
  %.04.i = phi ptr [ %.0.i, %"_ZZL10DoUnitTestvENK3$_1clERKN32pxrInternal_v0_24__pxrReserved__7SdfPathERNSt7__cxx1112basic_stringIcSt11char_traitsIcESaIcEEE.exit.i" ], [ %.02.i, %2 ]
  %3 = tail call noundef nonnull align 8 dereferenceable(32) ptr @_ZNK32pxrInternal_v0_24__pxrReserved__7SdfPath7GetNameB5cxx11Ev(ptr noundef nonnull align 4 dereferenceable(8) %.04.i)
  %4 = tail call noundef i32 @_ZNKSt7__cxx1112basic_stringIcSt11char_traitsIcESaIcEE7compareEPKc(ptr noundef nonnull align 8 dereferenceable(32) %3, ptr noundef nonnull @.str.118) #20
  %5 = icmp eq i32 %4, 0
  br i1 %5, label %6, label %"_ZZL10DoUnitTestvENK3$_1clERKN32pxrInternal_v0_24__pxrReserved__7SdfPathERNSt7__cxx1112basic_stringIcSt11char_traitsIcESaIcEEE.exit.i"

6:                                                ; preds = %.lr.ph.i
  %7 = getelementptr inbounds nuw i8, ptr %.04.i, i64 8
  %8 = tail call noundef nonnull align 8 dereferenceable(32) ptr @_ZNSt7__cxx1112basic_stringIcSt11char_traitsIcESaIcEEaSEPKc(ptr noundef nonnull align 8 dereferenceable(32) %7, ptr noundef nonnull @.str.103)
  br label %"_ZZL10DoUnitTestvENK3$_1clERKN32pxrInternal_v0_24__pxrReserved__7SdfPathERNSt7__cxx1112basic_stringIcSt11char_traitsIcESaIcEEE.exit.i"

"_ZZL10DoUnitTestvENK3$_1clERKN32pxrInternal_v0_24__pxrReserved__7SdfPathERNSt7__cxx1112basic_stringIcSt11char_traitsIcESaIcEEE.exit.i": ; preds = %6, %.lr.ph.i
  %9 = getelementptr inbounds nuw i8, ptr %.04.i, i64 40
  %.0.i = load ptr, ptr %9, align 8
  %.not.i = icmp eq ptr %.0.i, null
  br i1 %.not.i, label %"_ZZN32pxrInternal_v0_24__pxrReserved__12SdfPathTableINSt7__cxx1112basic_stringIcSt11char_traitsIcESaIcEEEE15ParallelForEachIZL10DoUnitTestvE3$_1EEvRKT_ENKUlRPvE_clESE_.exit", label %.lr.ph.i, !llvm.loop !56

"_ZZN32pxrInternal_v0_24__pxrReserved__12SdfPathTableINSt7__cxx1112basic_stringIcSt11char_traitsIcESaIcEEEE15ParallelForEachIZL10DoUnitTestvE3$_1EEvRKT_ENKUlRPvE_clESE_.exit": ; preds = %"_ZZL10DoUnitTestvENK3$_1clERKN32pxrInternal_v0_24__pxrReserved__7SdfPathERNSt7__cxx1112basic_stringIcSt11char_traitsIcESaIcEEE.exit.i", %2
  ret void
}